; Function Attrs: nounwind sspstrong uwtable
define internal range(i64 0, 65536) i64 @sysbus_esp_pdma_read(ptr noundef %opaque, i64 %addr, i32 noundef %size) #0 {
entry:
  %_now.i.i = alloca %struct.timeval, align 8
  %esp = getelementptr inbounds nuw i8, ptr %opaque, i64 1368
  %call.i = tail call ptr @object_dynamic_cast_assert(ptr noundef nonnull %esp, ptr noundef nonnull @.str.3, ptr noundef nonnull @.str.104, i32 noundef 20, ptr noundef nonnull @__func__.ESP) #10
  call void @llvm.lifetime.start.p0(i64 16, ptr nonnull %_now.i.i)
  %0 = load i32, ptr @trace_events_enabled_count, align 4
  %tobool.i.i = icmp ne i32 %0, 0
  %1 = load i16, ptr @_TRACE_ESP_PDMA_READ_DSTATE, align 2
  %tobool4.i.i = icmp ne i16 %1, 0
  %or.cond.i.i = select i1 %tobool.i.i, i1 %tobool4.i.i, i1 false
  br i1 %or.cond.i.i, label %land.lhs.true5.i.i, label %trace_esp_pdma_read.exit

land.lhs.true5.i.i:                               ; preds = %entry
  %2 = load i32, ptr @qemu_loglevel, align 4
  %and.i.i.i = and i32 %2, 32768
  %cmp.i.not.i.i = icmp eq i32 %and.i.i.i, 0
  br i1 %cmp.i.not.i.i, label %trace_esp_pdma_read.exit, label %if.then.i.i

if.then.i.i:                                      ; preds = %land.lhs.true5.i.i
  %3 = load i8, ptr @message_with_timestamp, align 1
  %tobool7.i.i = trunc i8 %3 to i1
  br i1 %tobool7.i.i, label %if.then8.i.i, label %if.else.i.i

if.then8.i.i:                                     ; preds = %if.then.i.i
  %call9.i.i = call i32 @gettimeofday(ptr noundef nonnull %_now.i.i, ptr noundef null) #10
  %call10.i.i = tail call i32 @qemu_get_thread_id() #10
  %4 = load i64, ptr %_now.i.i, align 8
  %tv_usec.i.i = getelementptr inbounds nuw i8, ptr %_now.i.i, i64 8
  %5 = load i64, ptr %tv_usec.i.i, align 8
  tail call void (ptr, ...) @qemu_log(ptr noundef nonnull @.str.115, i32 noundef %call10.i.i, i64 noundef %4, i64 noundef %5, i32 noundef %size) #10
  br label %trace_esp_pdma_read.exit

if.else.i.i:                                      ; preds = %if.then.i.i
  tail call void (ptr, ...) @qemu_log(ptr noundef nonnull @.str.116, i32 noundef %size) #10
  br label %trace_esp_pdma_read.exit

trace_esp_pdma_read.exit:                         ; preds = %entry, %land.lhs.true5.i.i, %if.then8.i.i, %if.else.i.i
  call void @llvm.lifetime.end.p0(i64 16, ptr nonnull %_now.i.i)
  switch i32 %size, label %sw.epilog [
    i32 1, label %sw.bb
    i32 2, label %sw.bb2
  ]

sw.bb:                                            ; preds = %trace_esp_pdma_read.exit
  %do_cmd.i = getelementptr inbounds nuw i8, ptr %call.i, i64 436
  %6 = load i32, ptr %do_cmd.i, align 4
  %tobool.not.i = icmp eq i32 %6, 0
  br i1 %tobool.not.i, label %if.else.i, label %if.then.i

if.then.i:                                        ; preds = %sw.bb
  %cmdfifo.i = getelementptr inbounds nuw i8, ptr %call.i, i64 408
  %call.i.i = tail call zeroext i1 @fifo8_is_empty(ptr noundef nonnull %cmdfifo.i) #10
  br i1 %call.i.i, label %sw.epilog, label %if.end.sink.split.i

if.else.i:                                        ; preds = %sw.bb
  %fifo.i = getelementptr inbounds nuw i8, ptr %call.i, i64 224
  %call.i3.i = tail call zeroext i1 @fifo8_is_empty(ptr noundef nonnull %fifo.i) #10
  br i1 %call.i3.i, label %sw.epilog, label %if.end.sink.split.i

if.end.sink.split.i:                              ; preds = %if.else.i, %if.then.i
  %fifo.sink.i = phi ptr [ %cmdfifo.i, %if.then.i ], [ %fifo.i, %if.else.i ]
  %call1.i5.i = tail call zeroext i8 @fifo8_pop(ptr noundef nonnull %fifo.sink.i) #10
  %7 = zext i8 %call1.i5.i to i64
  br label %sw.epilog

sw.bb2:                                           ; preds = %trace_esp_pdma_read.exit
  %do_cmd.i7 = getelementptr inbounds nuw i8, ptr %call.i, i64 436
  %8 = load i32, ptr %do_cmd.i7, align 4
  %tobool.not.i8 = icmp eq i32 %8, 0
  br i1 %tobool.not.i8, label %if.else.i16, label %if.then.i9

if.then.i9:                                       ; preds = %sw.bb2
  %cmdfifo.i10 = getelementptr inbounds nuw i8, ptr %call.i, i64 408
  %call.i.i11 = tail call zeroext i1 @fifo8_is_empty(ptr noundef nonnull %cmdfifo.i10) #10
  br i1 %call.i.i11, label %esp_pdma_read.exit19, label %if.end.sink.split.i12

if.else.i16:                                      ; preds = %sw.bb2
  %fifo.i17 = getelementptr inbounds nuw i8, ptr %call.i, i64 224
  %call.i3.i18 = tail call zeroext i1 @fifo8_is_empty(ptr noundef nonnull %fifo.i17) #10
  br i1 %call.i3.i18, label %esp_pdma_read.exit19, label %if.end.sink.split.i12

if.end.sink.split.i12:                            ; preds = %if.else.i16, %if.then.i9
  %fifo.sink.i13 = phi ptr [ %cmdfifo.i10, %if.then.i9 ], [ %fifo.i17, %if.else.i16 ]
  %call1.i5.i14 = tail call zeroext i8 @fifo8_pop(ptr noundef nonnull %fifo.sink.i13) #10
  %9 = zext i8 %call1.i5.i14 to i64
  %10 = shl nuw nsw i64 %9, 8
  br label %esp_pdma_read.exit19

esp_pdma_read.exit19:                             ; preds = %if.then.i9, %if.else.i16, %if.end.sink.split.i12
  %val.0.i15 = phi i64 [ 0, %if.then.i9 ], [ 0, %if.else.i16 ], [ %10, %if.end.sink.split.i12 ]
  %11 = load i32, ptr %do_cmd.i7, align 4
  %tobool.not.i21 = icmp eq i32 %11, 0
  br i1 %tobool.not.i21, label %if.else.i29, label %if.then.i22

if.then.i22:                                      ; preds = %esp_pdma_read.exit19
  %cmdfifo.i23 = getelementptr inbounds nuw i8, ptr %call.i, i64 408
  %call.i.i24 = tail call zeroext i1 @fifo8_is_empty(ptr noundef nonnull %cmdfifo.i23) #10
  br i1 %call.i.i24, label %esp_pdma_read.exit32, label %if.end.sink.split.i25

if.else.i29:                                      ; preds = %esp_pdma_read.exit19
  %fifo.i30 = getelementptr inbounds nuw i8, ptr %call.i, i64 224
  %call.i3.i31 = tail call zeroext i1 @fifo8_is_empty(ptr noundef nonnull %fifo.i30) #10
  br i1 %call.i3.i31, label %esp_pdma_read.exit32, label %if.end.sink.split.i25

if.end.sink.split.i25:                            ; preds = %if.else.i29, %if.then.i22
  %fifo.sink.i26 = phi ptr [ %cmdfifo.i23, %if.then.i22 ], [ %fifo.i30, %if.else.i29 ]
  %call1.i5.i27 = tail call zeroext i8 @fifo8_pop(ptr noundef nonnull %fifo.sink.i26) #10
  %12 = zext i8 %call1.i5.i27 to i64
  br label %esp_pdma_read.exit32

esp_pdma_read.exit32:                             ; preds = %if.then.i22, %if.else.i29, %if.end.sink.split.i25
  %val.0.i28 = phi i64 [ 0, %if.then.i22 ], [ 0, %if.else.i29 ], [ %12, %if.end.sink.split.i25 ]
  %or = or disjoint i64 %val.0.i28, %val.0.i15
  br label %sw.epilog

sw.epilog:                                        ; preds = %if.end.sink.split.i, %if.else.i, %if.then.i, %esp_pdma_read.exit32, %trace_esp_pdma_read.exit
  %val.0 = phi i64 [ 0, %trace_esp_pdma_read.exit ], [ %or, %esp_pdma_read.exit32 ], [ 0, %if.then.i ], [ 0, %if.else.i ], [ %7, %if.end.sink.split.i ]
  %fifo = getelementptr inbounds nuw i8, ptr %call.i, i64 224
  %call7 = tail call i32 @fifo8_num_used(ptr noundef nonnull %fifo) #10
  %cmp = icmp ult i32 %call7, 2
  br i1 %cmp, label %if.then, label %if.end

if.then:                                          ; preds = %sw.epilog
  tail call fastcc void @esp_pdma_cb(ptr noundef nonnull %call.i)
  br label %if.end

if.end:                                           ; preds = %if.then, %sw.epilog
  ret i64 %val.0
}